; Function Attrs: nounwind uwtable
define range(i32 0, 2) i32 @X509_NAME_ENTRY_set_data(ptr noundef %0, i32 noundef %1, ptr noundef %2, i32 noundef %3) local_unnamed_addr #0 {
  %5 = icmp eq ptr %0, null
  br i1 %5, label %35, label %6

6:                                                ; preds = %4
  %7 = icmp eq ptr %2, null
  %8 = icmp ne i32 %3, 0
  %or.cond = and i1 %7, %8
  br i1 %or.cond, label %35, label %9

9:                                                ; preds = %6
  %10 = icmp slt i32 %1, 1
  %11 = and i32 %1, 4096
  %.not = icmp eq i32 %11, 0
  %or.cond31 = or i1 %10, %.not
  br i1 %or.cond31, label %18, label %12

12:                                               ; preds = %9
  %13 = getelementptr inbounds nuw i8, ptr %0, i64 8
  %14 = load ptr, ptr %0, align 8, !tbaa !12
  %15 = tail call i32 @OBJ_obj2nid(ptr noundef %14) #6
  %16 = tail call ptr @ASN1_STRING_set_by_NID(ptr noundef nonnull %13, ptr noundef %2, i32 noundef %3, i32 noundef %1, i32 noundef %15) #6
  %.not30 = icmp ne ptr %16, null
  %17 = zext i1 %.not30 to i32
  br label %35

18:                                               ; preds = %9
  %19 = icmp slt i32 %3, 0
  br i1 %19, label %20, label %23

20:                                               ; preds = %18
  %21 = tail call i64 @strlen(ptr noundef nonnull dereferenceable(1) %2) #7
  %22 = trunc i64 %21 to i32
  br label %23

23:                                               ; preds = %20, %18
  %.024 = phi i32 [ %22, %20 ], [ %3, %18 ]
  %24 = getelementptr inbounds nuw i8, ptr %0, i64 8
  %25 = load ptr, ptr %24, align 8, !tbaa !18
  %26 = tail call i32 @ASN1_STRING_set(ptr noundef %25, ptr noundef %2, i32 noundef %.024) #6
  %.not28 = icmp eq i32 %26, 0
  br i1 %.not28, label %35, label %27

27:                                               ; preds = %23
  switch i32 %1, label %32 [
    i32 -1, label %35
    i32 -2, label %28
  ]

28:                                               ; preds = %27
  %29 = tail call i32 @ASN1_PRINTABLE_type(ptr noundef %2, i32 noundef %.024) #6
  %30 = load ptr, ptr %24, align 8, !tbaa !18
  %31 = getelementptr inbounds nuw i8, ptr %30, i64 4
  store i32 %29, ptr %31, align 4, !tbaa !30
  br label %35

32:                                               ; preds = %27
  %33 = load ptr, ptr %24, align 8, !tbaa !18
  %34 = getelementptr inbounds nuw i8, ptr %33, i64 4
  store i32 %1, ptr %34, align 4, !tbaa !30
  br label %35

35:                                               ; preds = %32, %28, %27, %23, %4, %6, %12
  %.0 = phi i32 [ %17, %12 ], [ 0, %6 ], [ 0, %4 ], [ 0, %23 ], [ 1, %27 ], [ 1, %28 ], [ 1, %32 ]
  ret i32 %.0
}